target datalayout = "e-m:e-p270:32:32-p271:32:32-p272:64:64-i64:64-i128:128-f80:128-n8:16:32:64-S128"
target triple = "x86_64-pc-linux-gnu"

%struct._zval_struct = type { %union._zend_value, %union.anon.0, %union.anon.3 }
%union._zend_value = type { i64 }
%union.anon.0 = type { i32 }
%union.anon.3 = type { i32 }

; Function Attrs: nounwind uwtable
define internal ptr @php_dom_obj_from_obj(ptr noundef %0) #0 {
  %2 = alloca ptr, align 8
  store ptr %0, ptr %2, align 8
  %3 = load ptr, ptr %2, align 8
  %4 = getelementptr inbounds i8, ptr %3, i64 -24
  ret ptr %4
}

; Function Attrs: nounwind uwtable
define hidden i32 @dom_node_child_nodes_read(ptr noundef %0, ptr noundef %1) #0 {
  %3 = alloca i32, align 4
  %4 = alloca ptr, align 8
  %5 = alloca ptr, align 8
  %6 = alloca ptr, align 8
  %7 = alloca ptr, align 8
  store ptr %0, ptr %4, align 8
  store ptr %1, ptr %5, align 8
  %8 = load ptr, ptr %4, align 8
  %9 = call ptr @dom_object_get_node(ptr noundef %8)
  store ptr %9, ptr %6, align 8
  %10 = load ptr, ptr %6, align 8
  %11 = icmp eq ptr %10, null
  br i1 %11, label %12, label %13

12:                                               ; preds = %2
  call void @php_dom_throw_error(i32 noundef 11, i32 noundef 1)
  store i32 -1, ptr %3, align 4
  br label %21

13:                                               ; preds = %2
  %14 = load ptr, ptr %5, align 8
  call void @php_dom_create_iterator(ptr noundef %14, i32 noundef 0)
  %15 = load ptr, ptr %5, align 8
  %16 = getelementptr inbounds %struct._zval_struct, ptr %15, i32 0, i32 0
  %17 = load ptr, ptr %16, align 8
  %18 = call ptr @php_dom_obj_from_obj(ptr noundef %17)
  store ptr %18, ptr %7, align 8
  %19 = load ptr, ptr %4, align 8
  %20 = load ptr, ptr %7, align 8
  call void @dom_namednode_iter(ptr noundef %19, i32 noundef 1, ptr noundef %20, ptr noundef null, ptr noundef null, i64 noundef 0, ptr noundef null, i64 noundef 0)
  store i32 0, ptr %3, align 4
  br label %21

21:                                               ; preds = %13, %12
  %22 = load i32, ptr %3, align 4
  ret i32 %22
}