; Function Attrs: nounwind uwtable
define hidden noundef i32 @dom_node_child_nodes_read(ptr noundef %0, ptr noundef %1) local_unnamed_addr #0 {
  %3 = tail call ptr @dom_object_get_node(ptr noundef %0) #12
  %4 = icmp eq ptr %3, null
  br i1 %4, label %5, label %6

5:                                                ; preds = %2
  tail call void @php_dom_throw_error(i32 noundef 11, i32 noundef 1) #12
  br label %9

6:                                                ; preds = %2
  tail call void @php_dom_create_iterator(ptr noundef %1, i32 noundef 0) #12
  %7 = load ptr, ptr %1, align 8
  %8 = getelementptr inbounds i8, ptr %7, i64 -24
  tail call void @dom_namednode_iter(ptr noundef %0, i32 noundef 1, ptr noundef nonnull %8, ptr noundef null, ptr noundef null, i64 noundef 0, ptr noundef null, i64 noundef 0) #12
  br label %9

9:                                                ; preds = %6, %5
  %.0 = phi i32 [ -1, %5 ], [ 0, %6 ]
  ret i32 %.0
}